target datalayout = "e-m:e-p270:32:32-p271:32:32-p272:64:64-i64:64-i128:128-f80:128-n8:16:32:64-S128"
target triple = "x86_64-unknown-linux-gnu"

%"class.QuantLib::SquareRootProcessRNDCalculator" = type { %"class.QuantLib::RiskNeutralDensityCalculator", double, double, double, double, double }
%"class.QuantLib::RiskNeutralDensityCalculator" = type { ptr }
%"class.boost::math::policies::policy" = type { i8 }
%"struct.boost::math::policies::policy" = type { i8 }
%"class.boost::math::policies::overflow_error" = type { i8 }
%"class.boost::math::policies::underflow_error" = type { i8 }
%"class.boost::math::policies::denorm_error" = type { i8 }
%"struct.boost::math::lanczos::lanczos17m64" = type { i8 }

@.str.25 = private unnamed_addr constant [17 x i8] c"numeric overflow\00", align 1
@.str.30 = private unnamed_addr constant [30 x i8] c"boost::math::lgamma<%1%>(%1%)\00", align 1

; Function Attrs: mustprogress nounwind uwtable
define linkonce_odr noundef double @_ZNSt14numeric_limitsIdE8infinityEv() #0 comdat align 2 {
entry:
  ret double 0x7FF0000000000000
}

; Function Attrs: mustprogress nounwind uwtable
define linkonce_odr noundef double @_ZNSt14numeric_limitsIdE3maxEv() #0 comdat align 2 {
entry:
  ret double 0x7FEFFFFFFFFFFFFF
}

; Function Attrs: inlinehint mustprogress uwtable
define linkonce_odr noundef double @_ZN5boost4math8policies6detail20raise_overflow_errorIdEET_PKcS6_RKNS1_14overflow_errorILNS1_17error_policy_typeE0EEE(ptr noundef %function, ptr noundef %message, ptr noundef nonnull align 1 dereferenceable(1) %0) #5 comdat {
entry:
  %function.addr = alloca ptr, align 8
  %message.addr = alloca ptr, align 8
  %.addr = alloca ptr, align 8
  store ptr %function, ptr %function.addr, align 8, !tbaa !3
  store ptr %message, ptr %message.addr, align 8, !tbaa !3
  store ptr %0, ptr %.addr, align 8, !tbaa !3
  %1 = load ptr, ptr %function.addr, align 8, !tbaa !3
  %2 = load ptr, ptr %message.addr, align 8, !tbaa !3
  %tobool = icmp ne ptr %2, null
  br i1 %tobool, label %cond.true, label %cond.false

cond.true:                                        ; preds = %entry
  %3 = load ptr, ptr %message.addr, align 8, !tbaa !3
  br label %cond.end

cond.false:                                       ; preds = %entry
  br label %cond.end

cond.end:                                         ; preds = %cond.false, %cond.true
  %cond = phi ptr [ %3, %cond.true ], [ @.str.25, %cond.false ]
  call void @_ZN5boost4math8policies6detail11raise_errorISt14overflow_errordEEvPKcS6_(ptr noundef %1, ptr noundef %cond)
  %call = call noundef double @_ZNSt14numeric_limitsIdE8infinityEv() #25
  ret double %call
}

; Function Attrs: inlinehint mustprogress nounwind uwtable
define linkonce_odr noundef double @_ZN5boost4math5tools9max_valueIdEET_v() #1 comdat {
entry:
  %call = call noundef double @_ZNSt14numeric_limitsIdE3maxEv() #25
  ret double %call
}

; Function Attrs: inlinehint mustprogress nounwind uwtable
define linkonce_odr noundef x86_fp80 @_ZSt4fabse(x86_fp80 noundef %__x) #1 comdat {
entry:
  %__x.addr = alloca x86_fp80, align 16
  store x86_fp80 %__x, ptr %__x.addr, align 16, !tbaa !81
  %0 = load x86_fp80, ptr %__x.addr, align 16, !tbaa !81
  %1 = call x86_fp80 @llvm.fabs.f80(x86_fp80 %0)
  ret x86_fp80 %1
}

; Function Attrs: alwaysinline mustprogress nounwind uwtable
define linkonce_odr noundef zeroext i1 @_ZN5boost4math8policies6detail12check_denormIdeEEbT0_PT_PKcRKNS1_12denorm_errorILNS1_17error_policy_typeE2EEE(x86_fp80 noundef %0, ptr noundef %1, ptr noundef %2, ptr noundef nonnull align 1 dereferenceable(1) %3) #13 comdat {
entry:
  %.addr = alloca x86_fp80, align 16
  %.addr1 = alloca ptr, align 8
  %.addr2 = alloca ptr, align 8
  %.addr3 = alloca ptr, align 8
  store x86_fp80 %0, ptr %.addr, align 16, !tbaa !81
  store ptr %1, ptr %.addr1, align 8, !tbaa !3
  store ptr %2, ptr %.addr2, align 8, !tbaa !3
  store ptr %3, ptr %.addr3, align 8, !tbaa !3
  ret i1 false
}

; Function Attrs: alwaysinline mustprogress nounwind uwtable
define linkonce_odr noundef zeroext i1 @_ZN5boost4math8policies6detail15check_underflowIdeEEbT0_PT_PKcRKNS1_15underflow_errorILNS1_17error_policy_typeE2EEE(x86_fp80 noundef %0, ptr noundef %1, ptr noundef %2, ptr noundef nonnull align 1 dereferenceable(1) %3) #13 comdat {
entry:
  %.addr = alloca x86_fp80, align 16
  %.addr1 = alloca ptr, align 8
  %.addr2 = alloca ptr, align 8
  %.addr3 = alloca ptr, align 8
  store x86_fp80 %0, ptr %.addr, align 16, !tbaa !81
  store ptr %1, ptr %.addr1, align 8, !tbaa !3
  store ptr %2, ptr %.addr2, align 8, !tbaa !3
  store ptr %3, ptr %.addr3, align 8, !tbaa !3
  ret i1 false
}

; Function Attrs: alwaysinline mustprogress uwtable
define linkonce_odr noundef zeroext i1 @_ZN5boost4math8policies6detail14check_overflowIdeNS1_14overflow_errorILNS1_17error_policy_typeE0EEEEEbT0_PT_PKcRKT1_(x86_fp80 noundef %val, ptr noundef %result, ptr noundef %function, ptr noundef nonnull align 1 dereferenceable(1) %pol) #18 comdat {
entry:
  %retval = alloca i1, align 1
  %val.addr = alloca x86_fp80, align 16
  %result.addr = alloca ptr, align 8
  %function.addr = alloca ptr, align 8
  %pol.addr = alloca ptr, align 8
  store x86_fp80 %val, ptr %val.addr, align 16, !tbaa !81
  store ptr %result, ptr %result.addr, align 8, !tbaa !3
  store ptr %function, ptr %function.addr, align 8, !tbaa !3
  store ptr %pol, ptr %pol.addr, align 8, !tbaa !3
  %0 = load x86_fp80, ptr %val.addr, align 16, !tbaa !81
  %call = call noundef x86_fp80 @_ZSt4fabse(x86_fp80 noundef %0)
  %call1 = call noundef double @_ZN5boost4math5tools9max_valueIdEET_v() #25
  %conv = fpext double %call1 to x86_fp80
  %cmp = fcmp ogt x86_fp80 %call, %conv
  br i1 %cmp, label %if.then, label %if.end

if.then:                                          ; preds = %entry
  %1 = load ptr, ptr %function.addr, align 8, !tbaa !3
  %2 = load ptr, ptr %pol.addr, align 8, !tbaa !3
  %call2 = call noundef double @_ZN5boost4math8policies6detail20raise_overflow_errorIdEET_PKcS6_RKNS1_14overflow_errorILNS1_17error_policy_typeE0EEE(ptr noundef %1, ptr noundef null, ptr noundef nonnull align 1 dereferenceable(1) %2)
  %3 = load x86_fp80, ptr %val.addr, align 16, !tbaa !81
  %conv3 = fptrunc x86_fp80 %3 to double
  %4 = load ptr, ptr %result.addr, align 8, !tbaa !3
  store double %conv3, ptr %4, align 8, !tbaa !7
  store i1 true, ptr %retval, align 1
  br label %return

if.end:                                           ; preds = %entry
  store i1 false, ptr %retval, align 1
  br label %return

return:                                           ; preds = %if.end, %if.then
  %5 = load i1, ptr %retval, align 1
  ret i1 %5
}

; Function Attrs: mustprogress nounwind uwtable
define linkonce_odr void @_ZNK5boost4math6detail18lgamma_initializerIeNS0_8policies6policyINS3_13promote_floatILb0EEENS3_14promote_doubleILb0EEENS3_14default_policyES9_S9_S9_S9_S9_S9_S9_S9_S9_S9_EEE4init17force_instantiateEv(ptr noundef nonnull align 1 dereferenceable(1) %this) #0 comdat align 2 {
entry:
  %this.addr = alloca ptr, align 8
  store ptr %this, ptr %this.addr, align 8, !tbaa !3
  ret void
}

; Function Attrs: alwaysinline mustprogress uwtable
define linkonce_odr noundef double @_ZN5boost4math8policies22checked_narrowing_castIdNS1_6policyINS1_13promote_floatILb0EEENS1_14promote_doubleILb0EEENS1_14default_policyES8_S8_S8_S8_S8_S8_S8_S8_S8_S8_EEeEET_T1_PKc(x86_fp80 noundef %val, ptr noundef %function) #18 comdat {
entry:
  %retval = alloca double, align 8
  %val.addr = alloca x86_fp80, align 16
  %function.addr = alloca ptr, align 8
  %result = alloca double, align 8
  %ref.tmp = alloca %"class.boost::math::policies::overflow_error", align 1
  %cleanup.dest.slot = alloca i32, align 4
  %ref.tmp1 = alloca %"class.boost::math::policies::underflow_error", align 1
  %ref.tmp5 = alloca %"class.boost::math::policies::denorm_error", align 1
  store x86_fp80 %val, ptr %val.addr, align 16, !tbaa !81
  store ptr %function, ptr %function.addr, align 8, !tbaa !3
  call void @llvm.lifetime.start.p0(i64 8, ptr %result) #25
  store double 0.000000e+00, ptr %result, align 8, !tbaa !7
  %0 = load x86_fp80, ptr %val.addr, align 16, !tbaa !81
  %1 = load ptr, ptr %function.addr, align 8, !tbaa !3
  call void @llvm.lifetime.start.p0(i64 1, ptr %ref.tmp) #25
  %call = call noundef zeroext i1 @_ZN5boost4math8policies6detail14check_overflowIdeNS1_14overflow_errorILNS1_17error_policy_typeE0EEEEEbT0_PT_PKcRKT1_(x86_fp80 noundef %0, ptr noundef %result, ptr noundef %1, ptr noundef nonnull align 1 dereferenceable(1) %ref.tmp)
  call void @llvm.lifetime.end.p0(i64 1, ptr %ref.tmp) #25
  br i1 %call, label %if.then, label %if.end

if.then:                                          ; preds = %entry
  %2 = load double, ptr %result, align 8, !tbaa !7
  store double %2, ptr %retval, align 8
  store i32 1, ptr %cleanup.dest.slot, align 4
  br label %cleanup

if.end:                                           ; preds = %entry
  %3 = load x86_fp80, ptr %val.addr, align 16, !tbaa !81
  %4 = load ptr, ptr %function.addr, align 8, !tbaa !3
  call void @llvm.lifetime.start.p0(i64 1, ptr %ref.tmp1) #25
  %call2 = call noundef zeroext i1 @_ZN5boost4math8policies6detail15check_underflowIdeEEbT0_PT_PKcRKNS1_15underflow_errorILNS1_17error_policy_typeE2EEE(x86_fp80 noundef %3, ptr noundef %result, ptr noundef %4, ptr noundef nonnull align 1 dereferenceable(1) %ref.tmp1) #25
  call void @llvm.lifetime.end.p0(i64 1, ptr %ref.tmp1) #25
  br i1 %call2, label %if.then3, label %if.end4

if.then3:                                         ; preds = %if.end
  %5 = load double, ptr %result, align 8, !tbaa !7
  store double %5, ptr %retval, align 8
  store i32 1, ptr %cleanup.dest.slot, align 4
  br label %cleanup

if.end4:                                          ; preds = %if.end
  %6 = load x86_fp80, ptr %val.addr, align 16, !tbaa !81
  %7 = load ptr, ptr %function.addr, align 8, !tbaa !3
  call void @llvm.lifetime.start.p0(i64 1, ptr %ref.tmp5) #25
  %call6 = call noundef zeroext i1 @_ZN5boost4math8policies6detail12check_denormIdeEEbT0_PT_PKcRKNS1_12denorm_errorILNS1_17error_policy_typeE2EEE(x86_fp80 noundef %6, ptr noundef %result, ptr noundef %7, ptr noundef nonnull align 1 dereferenceable(1) %ref.tmp5) #25
  call void @llvm.lifetime.end.p0(i64 1, ptr %ref.tmp5) #25
  br i1 %call6, label %if.then7, label %if.end8

if.then7:                                         ; preds = %if.end4
  %8 = load double, ptr %result, align 8, !tbaa !7
  store double %8, ptr %retval, align 8
  store i32 1, ptr %cleanup.dest.slot, align 4
  br label %cleanup

if.end8:                                          ; preds = %if.end4
  %9 = load x86_fp80, ptr %val.addr, align 16, !tbaa !81
  %conv = fptrunc x86_fp80 %9 to double
  store double %conv, ptr %retval, align 8
  store i32 1, ptr %cleanup.dest.slot, align 4
  br label %cleanup

cleanup:                                          ; preds = %if.end8, %if.then7, %if.then3, %if.then
  call void @llvm.lifetime.end.p0(i64 8, ptr %result) #25
  %10 = load double, ptr %retval, align 8
  ret double %10
}

; Function Attrs: mustprogress uwtable
define linkonce_odr void @_ZN5boost4math6detail18lgamma_initializerIeNS0_8policies6policyINS3_13promote_floatILb0EEENS3_14promote_doubleILb0EEENS3_14default_policyES9_S9_S9_S9_S9_S9_S9_S9_S9_S9_EEE17force_instantiateEv() #2 comdat align 2 {
entry:
  call void @_ZNK5boost4math6detail18lgamma_initializerIeNS0_8policies6policyINS3_13promote_floatILb0EEENS3_14promote_doubleILb0EEENS3_14default_policyES9_S9_S9_S9_S9_S9_S9_S9_S9_S9_EEE4init17force_instantiateEv(ptr noundef nonnull align 1 dereferenceable(1) @_ZN5boost4math6detail18lgamma_initializerIeNS0_8policies6policyINS3_13promote_floatILb0EEENS3_14promote_doubleILb0EEENS3_14default_policyES9_S9_S9_S9_S9_S9_S9_S9_S9_S9_EEE11initializerE)
  ret void
}

; Function Attrs: inlinehint mustprogress uwtable
define linkonce_odr noundef double @_ZN5boost4math6lgammaIdNS0_8policies6policyINS2_14default_policyES4_S4_S4_S4_S4_S4_S4_S4_S4_S4_S4_S4_EEEENS0_5tools12promote_argsIT_fffffE4typeES8_PiRKT0_(double noundef %z, ptr noundef %sign, ptr noundef nonnull align 1 dereferenceable(1) %0) #5 comdat {
entry:
  %z.addr = alloca double, align 8
  %sign.addr = alloca ptr, align 8
  %.addr = alloca ptr, align 8
  %ref.tmp = alloca %"struct.boost::math::policies::policy", align 1
  %ref.tmp1 = alloca %"struct.boost::math::lanczos::lanczos17m64", align 1
  store double %z, ptr %z.addr, align 8, !tbaa !7
  store ptr %sign, ptr %sign.addr, align 8, !tbaa !3
  store ptr %0, ptr %.addr, align 8, !tbaa !3
  call void @_ZN5boost4math6detail18lgamma_initializerIeNS0_8policies6policyINS3_13promote_floatILb0EEENS3_14promote_doubleILb0EEENS3_14default_policyES9_S9_S9_S9_S9_S9_S9_S9_S9_S9_EEE17force_instantiateEv()
  %1 = load double, ptr %z.addr, align 8, !tbaa !7
  %conv = fpext double %1 to x86_fp80
  call void @llvm.lifetime.start.p0(i64 1, ptr %ref.tmp) #25
  call void @llvm.lifetime.start.p0(i64 1, ptr %ref.tmp1) #25
  %2 = load ptr, ptr %sign.addr, align 8, !tbaa !3
  %call = call noundef x86_fp80 @_ZN5boost4math6detail10lgamma_impIeNS0_8policies6policyINS3_13promote_floatILb0EEENS3_14promote_doubleILb0EEENS3_14default_policyES9_S9_S9_S9_S9_S9_S9_S9_S9_S9_EENS0_7lanczos12lanczos17m64EEET_SD_RKT0_RKT1_Pi(x86_fp80 noundef %conv, ptr noundef nonnull align 1 dereferenceable(1) %ref.tmp, ptr noundef nonnull align 1 dereferenceable(1) %ref.tmp1, ptr noundef %2)
  %call2 = call noundef double @_ZN5boost4math8policies22checked_narrowing_castIdNS1_6policyINS1_13promote_floatILb0EEENS1_14promote_doubleILb0EEENS1_14default_policyES8_S8_S8_S8_S8_S8_S8_S8_S8_S8_EEeEET_T1_PKc(x86_fp80 noundef %call, ptr noundef @.str.30)
  call void @llvm.lifetime.end.p0(i64 1, ptr %ref.tmp1) #25
  call void @llvm.lifetime.end.p0(i64 1, ptr %ref.tmp) #25
  ret double %call2
}

; Function Attrs: inlinehint mustprogress uwtable
define linkonce_odr noundef double @_ZN5boost4math6lgammaIdEENS0_5tools12promote_argsIT_fffffE4typeES4_(double noundef %x) #5 comdat {
entry:
  %x.addr = alloca double, align 8
  %ref.tmp = alloca %"class.boost::math::policies::policy", align 1
  store double %x, ptr %x.addr, align 8, !tbaa !7
  %0 = load double, ptr %x.addr, align 8, !tbaa !7
  call void @llvm.lifetime.start.p0(i64 1, ptr %ref.tmp) #25
  %call = call noundef double @_ZN5boost4math6lgammaIdNS0_8policies6policyINS2_14default_policyES4_S4_S4_S4_S4_S4_S4_S4_S4_S4_S4_S4_EEEENS0_5tools12promote_argsIT_fffffE4typeES8_PiRKT0_(double noundef %0, ptr noundef null, ptr noundef nonnull align 1 dereferenceable(1) %ref.tmp)
  call void @llvm.lifetime.end.p0(i64 1, ptr %ref.tmp) #25
  ret double %call
}

; Function Attrs: mustprogress uwtable
define noundef double @_ZNK8QuantLib30SquareRootProcessRNDCalculator14stationary_pdfEd(ptr noundef nonnull align 8 dereferenceable(48) %this, double noundef %v) #2 align 2 {
entry:
  %this.addr = alloca ptr, align 8
  %v.addr = alloca double, align 8
  %alpha = alloca double, align 8
  %beta = alloca double, align 8
  store ptr %this, ptr %this.addr, align 8, !tbaa !3
  store double %v, ptr %v.addr, align 8, !tbaa !7
  %this1 = load ptr, ptr %this.addr, align 8
  call void @llvm.lifetime.start.p0(i64 8, ptr %alpha) #25
  %df_ = getelementptr inbounds nuw %"class.QuantLib::SquareRootProcessRNDCalculator", ptr %this1, i32 0, i32 5
  %0 = load double, ptr %df_, align 8, !tbaa !17
  %mul = fmul double 5.000000e-01, %0
  store double %mul, ptr %alpha, align 8, !tbaa !7
  call void @llvm.lifetime.start.p0(i64 8, ptr %beta) #25
  %1 = load double, ptr %alpha, align 8, !tbaa !7
  %theta_ = getelementptr inbounds nuw %"class.QuantLib::SquareRootProcessRNDCalculator", ptr %this1, i32 0, i32 3
  %2 = load double, ptr %theta_, align 8, !tbaa !15
  %div = fdiv double %1, %2
  store double %div, ptr %beta, align 8, !tbaa !7
  %3 = load double, ptr %beta, align 8, !tbaa !7
  %4 = load double, ptr %alpha, align 8, !tbaa !7
  %call = call double @pow(double noundef %3, double noundef %4) #25, !tbaa !18
  %5 = load double, ptr %v.addr, align 8, !tbaa !7
  %6 = load double, ptr %alpha, align 8, !tbaa !7
  %sub = fsub double %6, 1.000000e+00
  %call2 = call double @pow(double noundef %5, double noundef %sub) #25, !tbaa !18
  %mul3 = fmul double %call, %call2
  %7 = load double, ptr %beta, align 8, !tbaa !7
  %fneg = fneg double %7
  %8 = load double, ptr %v.addr, align 8, !tbaa !7
  %9 = load double, ptr %alpha, align 8, !tbaa !7
  %call5 = call noundef double @_ZN5boost4math6lgammaIdEENS0_5tools12promote_argsIT_fffffE4typeES4_(double noundef %9)
  %neg = fneg double %call5
  %10 = call double @llvm.fmuladd.f64(double %fneg, double %8, double %neg)
  %call6 = call double @exp(double noundef %10) #25, !tbaa !18
  %mul7 = fmul double %mul3, %call6
  call void @llvm.lifetime.end.p0(i64 8, ptr %beta) #25
  call void @llvm.lifetime.end.p0(i64 8, ptr %alpha) #25
  ret double %mul7
}