; Function Attrs: mustprogress uwtable
define noundef double @_ZNK8QuantLib30SquareRootProcessRNDCalculator14stationary_pdfEd(ptr nocapture noundef nonnull readonly align 8 dereferenceable(48) %this, double noundef %v) local_unnamed_addr #1 align 2 {
entry:
  %ref.tmp.i.i = alloca %"struct.boost::math::policies::policy", align 1
  %ref.tmp1.i.i = alloca %"struct.boost::math::lanczos::lanczos17m64", align 1
  %df_ = getelementptr inbounds nuw i8, ptr %this, i64 40
  %0 = load double, ptr %df_, align 8, !tbaa !14
  %mul = fmul double %0, 5.000000e-01
  %theta_ = getelementptr inbounds nuw i8, ptr %this, i64 24
  %1 = load double, ptr %theta_, align 8, !tbaa !12
  %div = fdiv double %mul, %1
  %call = tail call double @pow(double noundef %div, double noundef %mul) #35, !tbaa !15
  %sub = fadd double %mul, -1.000000e+00
  %call2 = tail call double @pow(double noundef %v, double noundef %sub) #35, !tbaa !15
  %conv.i.i = fpext double %mul to x86_fp80
  call void @llvm.lifetime.start.p0(i64 1, ptr nonnull %ref.tmp.i.i) #35
  call void @llvm.lifetime.start.p0(i64 1, ptr nonnull %ref.tmp1.i.i) #35
  %call.i.i = call noundef x86_fp80 @_ZN5boost4math6detail10lgamma_impIeNS0_8policies6policyINS3_13promote_floatILb0EEENS3_14promote_doubleILb0EEENS3_14default_policyES9_S9_S9_S9_S9_S9_S9_S9_S9_S9_EENS0_7lanczos12lanczos17m64EEET_SD_RKT0_RKT1_Pi(x86_fp80 noundef %conv.i.i, ptr noundef nonnull align 1 dereferenceable(1) %ref.tmp.i.i, ptr noundef nonnull align 1 dereferenceable(1) %ref.tmp1.i.i, ptr noundef null)
  %2 = call noundef x86_fp80 @llvm.fabs.f80(x86_fp80 %call.i.i)
  %cmp.i.i.i = fcmp ogt x86_fp80 %2, 0xK43FEFFFFFFFFFFFFF800
  br i1 %cmp.i.i.i, label %if.then.i.i.i, label %_ZN5boost4math6lgammaIdEENS0_5tools12promote_argsIT_fffffE4typeES4_.exit

if.then.i.i.i:                                    ; preds = %entry
  call void @_ZN5boost4math8policies6detail11raise_errorISt14overflow_errordEEvPKcS6_(ptr noundef nonnull @.str.30, ptr noundef nonnull @.str.25)
  br label %_ZN5boost4math6lgammaIdEENS0_5tools12promote_argsIT_fffffE4typeES4_.exit

_ZN5boost4math6lgammaIdEENS0_5tools12promote_argsIT_fffffE4typeES4_.exit: ; preds = %entry, %if.then.i.i.i
  %fneg = fneg double %div
  %mul3 = fmul double %call, %call2
  %retval.0.i.i.i = fptrunc x86_fp80 %call.i.i to double
  call void @llvm.lifetime.end.p0(i64 1, ptr nonnull %ref.tmp1.i.i) #35
  call void @llvm.lifetime.end.p0(i64 1, ptr nonnull %ref.tmp.i.i) #35
  %neg = fneg double %retval.0.i.i.i
  %3 = call double @llvm.fmuladd.f64(double %fneg, double %v, double %neg)
  %call6 = call double @exp(double noundef %3) #35, !tbaa !15
  %mul7 = fmul double %mul3, %call6
  ret double %mul7
}